target datalayout = "e-m:e-p270:32:32-p271:32:32-p272:64:64-i64:64-i128:128-f80:128-n8:16:32:64-S128"
target triple = "x86_64-unknown-linux-gnu"

%struct.TPMEmulator = type { %struct.TPMBackend, ptr, %struct.CharBackend, ptr, i32, i64, i8, ptr, %struct.QemuMutex, i8, %struct.TPMBlobBuffers, i8, ptr }
%struct.TPMBackend = type { %struct.Object, ptr, i8, i8, ptr, ptr, %struct.anon }
%struct.Object = type { ptr, ptr, ptr, i32, ptr }
%struct.anon = type { ptr, ptr }
%struct.CharBackend = type { ptr, ptr, ptr, ptr, ptr, ptr, i32, i32 }
%struct.QemuMutex = type { %union.pthread_mutex_t, i8 }
%union.pthread_mutex_t = type { %struct.__pthread_mutex_s }
%struct.__pthread_mutex_s = type { i32, i32, i32, i32, i32, i16, i16, %struct.__pthread_internal_list }
%struct.__pthread_internal_list = type { ptr, ptr }
%struct.TPMBlobBuffers = type { i32, %struct.TPMSizedBuffer, i32, %struct.TPMSizedBuffer, i32, %struct.TPMSizedBuffer }
%struct.TPMSizedBuffer = type { i32, ptr }
%struct.TpmTypeOptions = type { i32, %union.anon.19 }
%union.anon.19 = type { %struct.TPMPassthroughOptionsWrapper }
%struct.TPMPassthroughOptionsWrapper = type { ptr }
%struct.TPMEmulatorOptionsWrapper = type { ptr }

@.str = private unnamed_addr constant [13 x i8] c"tpm-emulator\00", align 1
@.str.2 = private unnamed_addr constant [36 x i8] c"../qemu/backends/tpm/tpm_emulator.c\00", align 1
@__func__.TPM_EMULATOR = private unnamed_addr constant [13 x i8] c"TPM_EMULATOR\00", align 1

; Function Attrs: nounwind sspstrong uwtable
define internal ptr @TPM_EMULATOR(ptr noundef %obj) #0 {
entry:
  %obj.addr = alloca ptr, align 8
  store ptr %obj, ptr %obj.addr, align 8
  %0 = load ptr, ptr %obj.addr, align 8
  %call = call ptr @object_dynamic_cast_assert(ptr noundef %0, ptr noundef @.str, ptr noundef @.str.2, i32 noundef 50, ptr noundef @__func__.TPM_EMULATOR)
  ret ptr %call
}

; Function Attrs: nounwind sspstrong uwtable
define internal ptr @tpm_emulator_get_tpm_options(ptr noundef %tb) #0 {
entry:
  %tb.addr = alloca ptr, align 8
  %tpm_emu = alloca ptr, align 8
  %options = alloca ptr, align 8
  store ptr %tb, ptr %tb.addr, align 8
  %0 = load ptr, ptr %tb.addr, align 8
  %call = call ptr @TPM_EMULATOR(ptr noundef %0)
  store ptr %call, ptr %tpm_emu, align 8
  %call1 = call noalias ptr @g_malloc0_n(i64 noundef 1, i64 noundef 16) #10
  store ptr %call1, ptr %options, align 8
  %1 = load ptr, ptr %options, align 8
  %type = getelementptr inbounds %struct.TpmTypeOptions, ptr %1, i32 0, i32 0
  store i32 1, ptr %type, align 8
  %2 = load ptr, ptr %tpm_emu, align 8
  %options2 = getelementptr inbounds %struct.TPMEmulator, ptr %2, i32 0, i32 1
  %3 = load ptr, ptr %options2, align 8
  %call3 = call ptr @qapi_clone(ptr noundef %3, ptr noundef @visit_type_TPMEmulatorOptions)
  %4 = load ptr, ptr %options, align 8
  %u = getelementptr inbounds %struct.TpmTypeOptions, ptr %4, i32 0, i32 1
  %data = getelementptr inbounds %struct.TPMEmulatorOptionsWrapper, ptr %u, i32 0, i32 0
  store ptr %call3, ptr %data, align 8
  %5 = load ptr, ptr %options, align 8
  ret ptr %5
}